; Function Attrs: mustprogress uwtable
define internal void @_ZNK19OpenColorIO_v2_4dev12_GLOBAL__N_111Lut3DWriter13getAttributesERSt6vectorISt4pairINSt7__cxx1112basic_stringIcSt11char_traitsIcESaIcEEES9_ESaISA_EE(ptr noundef nonnull align 8 dereferenceable(40) %this, ptr noundef nonnull align 8 dereferenceable(24) %attributes) unnamed_addr #4 align 2 personality ptr @__gxx_personality_v0 {
entry:
  %interpolationName = alloca ptr, align 8
  %ref.tmp = alloca %"struct.std::pair", align 8
  tail call void @_ZNK19OpenColorIO_v2_4dev12_GLOBAL__N_18OpWriter13getAttributesERSt6vectorISt4pairINSt7__cxx1112basic_stringIcSt11char_traitsIcESaIcEEES9_ESaISA_EE(ptr noundef nonnull align 8 dereferenceable(24) %this, ptr noundef nonnull align 8 dereferenceable(24) %attributes)
  %m_lut = getelementptr inbounds i8, ptr %this, i64 24
  %0 = load ptr, ptr %m_lut, align 8
  %m_interpolation.i = getelementptr inbounds i8, ptr %0, i64 168
  %1 = load i32, ptr %m_interpolation.i, align 8
  %call3 = tail call noundef ptr @_ZN19OpenColorIO_v2_4dev22GetInterpolation3DNameENS_13InterpolationE(i32 noundef %1)
  store ptr %call3, ptr %interpolationName, align 8
  %tobool.not = icmp eq ptr %call3, null
  br i1 %tobool.not, label %if.end, label %land.lhs.true

land.lhs.true:                                    ; preds = %entry
  %2 = load i8, ptr %call3, align 1
  %tobool4.not = icmp eq i8 %2, 0
  br i1 %tobool4.not, label %if.end, label %if.then

if.then:                                          ; preds = %land.lhs.true
  call void @_ZNSt4pairINSt7__cxx1112basic_stringIcSt11char_traitsIcESaIcEEES5_EC2IRA14_KcRPS8_TnNSt9enable_ifIXaaclsr5_PCCPE22_MoveConstructiblePairIT_T0_EEclsr5_PCCPE30_ImplicitlyMoveConvertiblePairISE_SF_EEEbE4typeELb1EEEOSE_OSF_(ptr noundef nonnull align 8 dereferenceable(64) %ref.tmp, ptr noundef nonnull align 1 dereferenceable(14) @_ZN19OpenColorIO_v2_4devL18ATTR_INTERPOLATIONE, ptr noundef nonnull align 8 dereferenceable(8) %interpolationName)
  %_M_finish.i.i = getelementptr inbounds i8, ptr %attributes, i64 8
  %3 = load ptr, ptr %_M_finish.i.i, align 8
  %_M_end_of_storage.i.i = getelementptr inbounds i8, ptr %attributes, i64 16
  %4 = load ptr, ptr %_M_end_of_storage.i.i, align 8
  %cmp.not.i.i = icmp eq ptr %3, %4
  br i1 %cmp.not.i.i, label %if.else.i.i, label %if.then.i.i

if.then.i.i:                                      ; preds = %if.then
  call void @_ZNSt7__cxx1112basic_stringIcSt11char_traitsIcESaIcEEC1EOS4_(ptr noundef nonnull align 8 dereferenceable(32) %3, ptr noundef nonnull align 8 dereferenceable(32) %ref.tmp) #25
  %second.i.i.i.i.i = getelementptr inbounds i8, ptr %3, i64 32
  %second3.i.i.i.i.i = getelementptr inbounds i8, ptr %ref.tmp, i64 32
  call void @_ZNSt7__cxx1112basic_stringIcSt11char_traitsIcESaIcEEC1EOS4_(ptr noundef nonnull align 8 dereferenceable(32) %second.i.i.i.i.i, ptr noundef nonnull align 8 dereferenceable(32) %second3.i.i.i.i.i) #25
  %5 = load ptr, ptr %_M_finish.i.i, align 8
  %incdec.ptr.i.i = getelementptr inbounds i8, ptr %5, i64 64
  store ptr %incdec.ptr.i.i, ptr %_M_finish.i.i, align 8
  br label %invoke.cont

if.else.i.i:                                      ; preds = %if.then
  invoke void @_ZNSt6vectorISt4pairINSt7__cxx1112basic_stringIcSt11char_traitsIcESaIcEEES6_ESaIS7_EE17_M_realloc_insertIJS7_EEEvN9__gnu_cxx17__normal_iteratorIPS7_S9_EEDpOT_(ptr noundef nonnull align 8 dereferenceable(24) %attributes, ptr %3, ptr noundef nonnull align 8 dereferenceable(64) %ref.tmp)
          to label %invoke.cont unwind label %lpad

invoke.cont:                                      ; preds = %if.then.i.i, %if.else.i.i
  %second.i = getelementptr inbounds i8, ptr %ref.tmp, i64 32
  call void @_ZNSt7__cxx1112basic_stringIcSt11char_traitsIcESaIcEED1Ev(ptr noundef nonnull align 8 dereferenceable(32) %second.i) #25
  call void @_ZNSt7__cxx1112basic_stringIcSt11char_traitsIcESaIcEED1Ev(ptr noundef nonnull align 8 dereferenceable(32) %ref.tmp) #25
  br label %if.end

lpad:                                             ; preds = %if.else.i.i
  %6 = landingpad { ptr, i32 }
          cleanup
  %second.i2 = getelementptr inbounds i8, ptr %ref.tmp, i64 32
  call void @_ZNSt7__cxx1112basic_stringIcSt11char_traitsIcESaIcEED1Ev(ptr noundef nonnull align 8 dereferenceable(32) %second.i2) #25
  call void @_ZNSt7__cxx1112basic_stringIcSt11char_traitsIcESaIcEED1Ev(ptr noundef nonnull align 8 dereferenceable(32) %ref.tmp) #25
  resume { ptr, i32 } %6

if.end:                                           ; preds = %invoke.cont, %land.lhs.true, %entry
  ret void
}